; Function Attrs: mustprogress nofree norecurse nosync nounwind memory(readwrite, inaccessiblemem: none) uwtable
define hidden noundef zeroext i1 @_ZN2cv11bioinspired12RetinaFilter21getParvoFoveaResponseERSt8valarrayIfE(ptr noundef nonnull readonly align 8 captures(none) dereferenceable(1217) %0, ptr noundef nonnull readonly align 8 captures(none) dereferenceable(16) %1) local_unnamed_addr #11 align 2 {
  %3 = load i8, ptr %0, align 8, !tbaa !49, !range !93, !noundef !94
  %4 = trunc nuw i8 %3 to i1
  br i1 %4, label %5, label %.loopexit

5:                                                ; preds = %2
  %6 = load i64, ptr %1, align 8, !tbaa !3
  %7 = getelementptr inbounds nuw i8, ptr %0, i64 272
  %8 = load i64, ptr %7, align 8, !tbaa !68
  %9 = and i64 %8, 4294967295
  %.not = icmp eq i64 %6, %9
  br i1 %.not, label %10, label %.loopexit

10:                                               ; preds = %5
  %11 = getelementptr inbounds nuw i8, ptr %0, i64 96
  %12 = load i64, ptr %11, align 8, !tbaa !68
  %13 = trunc i64 %12 to i32
  %.not17 = icmp eq i32 %13, 0
  br i1 %.not17, label %.loopexit, label %.lr.ph.preheader

.lr.ph.preheader:                                 ; preds = %10
  %14 = getelementptr inbounds nuw i8, ptr %0, i64 40
  %15 = load ptr, ptr %14, align 8, !tbaa !10
  %16 = getelementptr inbounds nuw i8, ptr %1, i64 8
  %17 = load ptr, ptr %16, align 8, !tbaa !10
  %18 = getelementptr inbounds nuw i8, ptr %0, i64 240
  %19 = load ptr, ptr %18, align 8, !tbaa !10
  br label %.lr.ph

.lr.ph:                                           ; preds = %.lr.ph.preheader, %.lr.ph
  %.016 = phi i32 [ %25, %.lr.ph ], [ 0, %.lr.ph.preheader ]
  %.0915 = phi ptr [ %26, %.lr.ph ], [ %15, %.lr.ph.preheader ]
  %.01014 = phi ptr [ %24, %.lr.ph ], [ %17, %.lr.ph.preheader ]
  %.01113 = phi ptr [ %20, %.lr.ph ], [ %19, %.lr.ph.preheader ]
  %20 = getelementptr inbounds nuw i8, ptr %.01113, i64 4
  %21 = load float, ptr %.01113, align 4, !tbaa !61
  %22 = load float, ptr %.0915, align 4, !tbaa !61
  %23 = fmul float %21, %22
  %24 = getelementptr inbounds nuw i8, ptr %.01014, i64 4
  store float %23, ptr %.01014, align 4, !tbaa !61
  %25 = add nuw i32 %.016, 1
  %26 = getelementptr inbounds nuw i8, ptr %.0915, i64 8
  %exitcond.not = icmp eq i32 %25, %13
  br i1 %exitcond.not, label %.loopexit, label %.lr.ph, !llvm.loop !114

.loopexit:                                        ; preds = %.lr.ph, %10, %5, %2
  %.012 = phi i1 [ false, %2 ], [ false, %5 ], [ true, %10 ], [ true, %.lr.ph ]
  ret i1 %.012
}